; Function Attrs: nounwind sspstrong uwtable
define internal void @v9fs_path_write_lock(ptr noundef %s) #0 {
entry:
  %export_flags = getelementptr inbounds nuw i8, ptr %s, i64 48
  %0 = load i32, ptr %export_flags, align 8
  %and = and i32 %0, 2
  %tobool.not = icmp eq i32 %and, 0
  br i1 %tobool.not, label %if.end, label %if.then

if.then:                                          ; preds = %entry
  %rename_lock = getelementptr inbounds nuw i8, ptr %s, i64 7288
  tail call void @qemu_co_rwlock_wrlock(ptr noundef nonnull %rename_lock) #24
  br label %if.end

if.end:                                           ; preds = %if.then, %entry
  ret void
}